; Function Attrs: mustprogress nounwind uwtable
define noundef i32 @jio_printf(ptr noundef %0, ...) local_unnamed_addr #0 {
  %2 = alloca [1 x %struct.__va_list_tag], align 16
  call void @llvm.va_start.p0(ptr nonnull %2)
  %3 = load i8, ptr @DisplayVMOutputToStderr, align 1
  %4 = trunc i8 %3 to i1
  %5 = load ptr, ptr @_ZN13defaultStream13_error_streamE, align 8
  %6 = load ptr, ptr @_ZN13defaultStream14_output_streamE, align 8
  %7 = select i1 %4, ptr %5, ptr %6
  %8 = load ptr, ptr @_ZN9Arguments14_vfprintf_hookE, align 8
  %.not.i = icmp eq ptr %8, null
  br i1 %.not.i, label %11, label %9

9:                                                ; preds = %1
  %10 = call noundef i32 %8(ptr noundef %7, ptr noundef %0, ptr noundef nonnull %2) #16
  br label %jio_vfprintf.exit

11:                                               ; preds = %1
  %12 = call i32 @vfprintf(ptr noundef %7, ptr noundef %0, ptr noundef nonnull %2) #16
  br label %jio_vfprintf.exit

jio_vfprintf.exit:                                ; preds = %9, %11
  %.0.i = phi i32 [ %10, %9 ], [ %12, %11 ]
  call void @llvm.va_end.p0(ptr nonnull %2)
  ret i32 %.0.i
}